; Function Attrs: null_pointer_is_valid sspstrong uwtable
define internal void @httpstat_reset(ptr noundef readonly captures(none) %0) #0 {
  %2 = getelementptr inbounds nuw i8, ptr %0, i64 8
  %3 = load ptr, ptr %2, align 8
  tail call void @g_hash_table_foreach(ptr noundef %3, ptr noundef nonnull @http_reset_hash_responses, ptr noundef null)
  %4 = getelementptr inbounds nuw i8, ptr %0, i64 16
  %5 = load ptr, ptr %4, align 8
  tail call void @g_hash_table_foreach(ptr noundef %5, ptr noundef nonnull @http_reset_hash_requests, ptr noundef null)
  ret void
}